target datalayout = "e-m:e-p270:32:32-p271:32:32-p272:64:64-i64:64-i128:128-f80:128-n8:16:32:64-S128"
target triple = "x86_64-unknown-linux-gnu"

%"class.nlsat::solver" = type { ptr, ptr }
%"struct.nlsat::solver::imp" = type { ptr, ptr, ptr, ptr, i8, ptr, ptr, %"class.polynomial::cache", ptr, %class.dependency_manager, %"class.nlsat::assignment", %"class.nlsat::evaluator", ptr, %class.chashtable, %class.chashtable.7, %class.svector.8, %class.ref_vector, %class.ref_vector, %class.id_gen, %class.ptr_vector.12, %class.ptr_vector.12, %class.ptr_vector.12, i32, %class.ptr_vector.14, %class.svector.16, %class.svector.8, %class.svector.18, %class.vector.20, %class.svector.5, %class.id_gen, %class.svector.5, %class.vector.20, %class.ptr_vector.21, %class.ptr_vector.14, %class.svector.8, %class.svector.8, %"struct.nlsat::solver::imp::perm_display_var_proc", ptr, %"class.nlsat::explain", i32, i32, i32, %class.svector.23, %"class.algebraic_numbers::anum", i64, i32, i8, i8, i8, i8, i32, i8, i8, i8, i32, i32, i32, i32, i32, i32, i32, %class.svector.5, %class.svector.25, %class.ptr_vector.12, i32, %class.svector.27, i32, %"class.nlsat::scoped_literal_vector", %"class.nlsat::scoped_literal_vector", %class.obj_ref, %class.svector.8, %class.svector.8, %class.svector.16 }
%"class.polynomial::cache" = type { ptr }
%class.dependency_manager = type { ptr, ptr, %class.ptr_vector.1 }
%class.ptr_vector.1 = type { %class.vector.2 }
%class.vector.2 = type { ptr }
%"class.nlsat::assignment" = type { %"class.polynomial::var2value", %class._scoped_numeral_vector, %class.svector.5 }
%"class.polynomial::var2value" = type { ptr }
%class._scoped_numeral_vector = type { %class.svector.3, ptr }
%class.svector.3 = type { %class.vector.4 }
%class.vector.4 = type { ptr }
%"class.nlsat::evaluator" = type { ptr }
%class.chashtable = type { ptr, i32, i32, i32, i32, i32, i32, i32, ptr, ptr, ptr }
%class.chashtable.7 = type { ptr, i32, i32, i32, i32, i32, i32, i32, ptr, ptr, ptr }
%class.ref_vector = type { %class.ref_vector_core }
%class.ref_vector_core = type { %class.ref_manager_wrapper, %class.ptr_vector.10 }
%class.ref_manager_wrapper = type { ptr }
%class.ptr_vector.10 = type { %class.vector.11 }
%class.vector.11 = type { ptr }
%class.svector.18 = type { %class.vector.19 }
%class.vector.19 = type { ptr }
%class.id_gen = type { i32, %class.svector.8 }
%class.vector.20 = type { ptr }
%class.ptr_vector.21 = type { %class.vector.22 }
%class.vector.22 = type { ptr }
%class.ptr_vector.14 = type { %class.vector.15 }
%class.vector.15 = type { ptr }
%"struct.nlsat::solver::imp::perm_display_var_proc" = type { %"struct.polynomial::display_var_proc", ptr, %"struct.polynomial::display_var_proc", ptr }
%"struct.polynomial::display_var_proc" = type { ptr }
%"class.nlsat::explain" = type { ptr }
%class.svector.23 = type { %class.vector.24 }
%class.vector.24 = type { ptr }
%"class.algebraic_numbers::anum" = type { ptr }
%class.svector.5 = type { %class.vector.6 }
%class.vector.6 = type { ptr }
%class.svector.25 = type { %class.vector.26 }
%class.vector.26 = type { ptr }
%class.ptr_vector.12 = type { %class.vector.13 }
%class.vector.13 = type { ptr }
%class.svector.27 = type { %class.vector.28 }
%class.vector.28 = type { ptr }
%"class.nlsat::scoped_literal_vector" = type { ptr, %class.svector.25 }
%class.obj_ref = type { ptr, ptr }
%class.svector.8 = type { %class.vector.9 }
%class.vector.9 = type { ptr }
%class.svector.16 = type { %class.vector.17 }
%class.vector.17 = type { ptr }

; Function Attrs: mustprogress uwtable
define linkonce_odr hidden noundef i32 @_ZN5nlsat6solver3imp6mk_varEb(ptr noundef nonnull align 8 dereferenceable(728) %this, i1 noundef zeroext %is_int) #5 comdat align 2 {
entry:
  %this.addr = alloca ptr, align 8
  %is_int.addr = alloca i8, align 1
  %x = alloca i32, align 4
  store ptr %this, ptr %this.addr, align 8
  %frombool = zext i1 %is_int to i8
  store i8 %frombool, ptr %is_int.addr, align 1
  %this1 = load ptr, ptr %this.addr, align 8
  %m_pm = getelementptr inbounds %"struct.nlsat::solver::imp", ptr %this1, i32 0, i32 6
  %0 = load ptr, ptr %m_pm, align 8
  %call = call noundef i32 @_ZN10polynomial7manager6mk_varEv(ptr noundef nonnull align 8 dereferenceable(8) %0)
  store i32 %call, ptr %x, align 4
  %1 = load i32, ptr %x, align 4
  %2 = load i8, ptr %is_int.addr, align 1
  %tobool = trunc i8 %2 to i1
  call void @_ZN5nlsat6solver3imp12register_varEjb(ptr noundef nonnull align 8 dereferenceable(728) %this1, i32 noundef %1, i1 noundef zeroext %tobool)
  %3 = load i32, ptr %x, align 4
  ret i32 %3
}

; Function Attrs: mustprogress uwtable
define hidden noundef i32 @_ZN5nlsat6solver6mk_varEb(ptr noundef nonnull align 8 dereferenceable(16) %this, i1 noundef zeroext %is_int) #5 align 2 {
entry:
  %this.addr = alloca ptr, align 8
  %is_int.addr = alloca i8, align 1
  store ptr %this, ptr %this.addr, align 8
  %frombool = zext i1 %is_int to i8
  store i8 %frombool, ptr %is_int.addr, align 1
  %this1 = load ptr, ptr %this.addr, align 8
  %m_imp = getelementptr inbounds %"class.nlsat::solver", ptr %this1, i32 0, i32 0
  %0 = load ptr, ptr %m_imp, align 8
  %1 = load i8, ptr %is_int.addr, align 1
  %tobool = trunc i8 %1 to i1
  %call = call noundef i32 @_ZN5nlsat6solver3imp6mk_varEb(ptr noundef nonnull align 8 dereferenceable(728) %0, i1 noundef zeroext %tobool)
  ret i32 %call
}