; Function Attrs: mustprogress uwtable
define hidden noundef i32 @_ZN5nlsat6solver6mk_varEb(ptr nocapture noundef nonnull readonly align 8 dereferenceable(16) %this, i1 noundef zeroext %is_int) local_unnamed_addr #4 align 2 {
entry:
  %0 = load ptr, ptr %this, align 8
  %m_pm.i = getelementptr inbounds i8, ptr %0, i64 48
  %1 = load ptr, ptr %m_pm.i, align 8
  %call.i = tail call noundef i32 @_ZN10polynomial7manager6mk_varEv(ptr noundef nonnull align 8 dereferenceable(8) %1)
  tail call void @_ZN5nlsat6solver3imp12register_varEjb(ptr noundef nonnull align 8 dereferenceable(728) %0, i32 noundef %call.i, i1 noundef zeroext %is_int)
  ret i32 %call.i
}